target datalayout = "e-m:e-p270:32:32-p271:32:32-p272:64:64-i64:64-i128:128-f80:128-n8:16:32:64-S128"
target triple = "x86_64-pc-linux-gnu"

%struct.DHT = type { i32, i32, ptr, [3 x i16], [3 x float], ptr, ptr }
%class.LibRaw = type { ptr, %struct.libraw_data_t, ptr, %struct.libraw_internal_data_t, [2048 x %struct.decode], ptr, ptr, [10 x %struct.tiff_ifd_t], %class.libraw_memmgr, %struct.libraw_callbacks_t, { i64, i64 }, { i64, i64 }, { i64, i64 }, ptr, ptr, ptr, i64, ptr, ptr, ptr, ptr }
%struct.libraw_data_t = type { ptr, %struct.libraw_image_sizes_t, %struct.libraw_iparams_t, %struct.libraw_lensinfo_t, %struct.libraw_makernotes_t, %struct.libraw_shootinginfo_t, %struct.libraw_output_params_t, %struct.libraw_raw_unpack_params_t, i32, i32, %struct.libraw_colordata_t, %struct.libraw_imgother_t, %struct.libraw_thumbnail_t, %struct.libraw_thumbnail_list_t, %struct.libraw_rawdata_t, ptr }
%struct.libraw_image_sizes_t = type { i16, i16, i16, i16, i16, i16, i16, i16, i32, double, i32, [8 x [4 x i32]], i16, [2 x %struct.libraw_raw_inset_crop_t] }
%struct.libraw_raw_inset_crop_t = type { i16, i16, i16, i16 }
%struct.libraw_iparams_t = type { [4 x i8], [64 x i8], [64 x i8], [64 x i8], [64 x i8], [64 x i8], i32, i32, i32, i32, i32, i32, [6 x [6 x i8]], [6 x [6 x i8]], [5 x i8], i32, ptr }
%struct.libraw_lensinfo_t = type { float, float, float, float, float, [128 x i8], [128 x i8], [128 x i8], [128 x i8], i16, %struct.libraw_nikonlens_t, %struct.libraw_dnglens_t, %struct.libraw_makernotes_lens_t }
%struct.libraw_nikonlens_t = type { float, i8, i8, i8, i8 }
%struct.libraw_dnglens_t = type { float, float, float, float }
%struct.libraw_makernotes_lens_t = type { i64, [128 x i8], i16, i16, i64, i16, i16, [64 x i8], i16, [16 x i8], [16 x i8], float, float, float, float, float, float, float, float, float, float, float, float, float, float, float, i64, [128 x i8], i64, [128 x i8], i64, [128 x i8], i16, float }
%struct.libraw_makernotes_t = type { %struct.libraw_canon_makernotes_t, %struct.libraw_nikon_makernotes_t, %struct.libraw_hasselblad_makernotes_t, %struct.libraw_fuji_info_t, %struct.libraw_olympus_makernotes_t, %struct.libraw_sony_info_t, %struct.libraw_kodak_makernotes_t, %struct.libraw_panasonic_makernotes_t, %struct.libraw_pentax_makernotes_t, %struct.libraw_p1_makernotes_t, %struct.libraw_ricoh_makernotes_t, %struct.libraw_samsung_makernotes_t, %struct.libraw_metadata_common_t }
%struct.libraw_canon_makernotes_t = type { i32, i32, i32, i32, [4 x i32], i32, [4 x i32], i16, i16, i8, i16, i16, i16, i16, i16, i16, i16, i16, i16, i16, i16, i16, i16, i32, float, i16, i16, i16, i32, i16, i32, i32, i16, i32, %struct.libraw_area_t, %struct.libraw_area_t, %struct.libraw_area_t, %struct.libraw_area_t, %struct.libraw_area_t, [2 x i16] }
%struct.libraw_area_t = type { i16, i16, i16, i16 }
%struct.libraw_nikon_makernotes_t = type { double, i16, i16, [7 x i8], i8, i8, [13 x i8], [20 x i8], [4 x i8], [4 x i8], [4 x i8], i8, i8, i8, i8, i8, [2 x i8], i8, i8, i8, i8, i8, [4 x i8], [4 x i8], i8, i16, i32, i32, i32, i32, [4 x double], i8, i8, i8, i32, i32, i32, i8, [4 x i16], i16, %struct.libraw_sensor_highspeed_crop_t, i16, i16, i16, i32, [20 x i8], [20 x i8], i32, i16, double, double, double }
%struct.libraw_sensor_highspeed_crop_t = type { i16, i16, i16, i16 }
%struct.libraw_hasselblad_makernotes_t = type { i32, double, [8 x i8], [64 x i8], [64 x i8], i32, i32, i32, i32, [32 x i8], [64 x i8], i32, [2 x i32], [2 x i32], [4 x [3 x double]] }
%struct.libraw_fuji_info_t = type { float, i16, i16, i16, i16, i16, i16, i16, i16, [33 x i8], [33 x i8], float, i16, i16, [2 x i16], i16, i32, i32, i16, [3 x i16], i16, i16, i16, i16, i16, i32, i16, [13 x i8], [5 x i8], [5 x i8], i32, i16, i32, i16, [9 x i16], [32 x i32], i32, i32, i32, [2 x float], i32 }
%struct.libraw_olympus_makernotes_t = type { [6 x i8], i16, [2 x i32], [5 x i16], i16, [2 x i16], i16, i16, [64 x i32], [5 x double], i16, i8, [3 x i16], [3 x i32], i16, i16, i16, i16, double, [4 x i16], [2 x i32], i8, i32, i16, i16 }
%struct.libraw_sony_info_t = type { i16, i8, i8, i32, i8, i32, i8, i8, i16, [2 x i16], i8, i8, i16, [10 x i8], i8, i8, [4 x i16], i16, i8, i8, i8, i16, i32, i16, [2 x i16], i16, i16, i16, i16, i16, i16, i16, i32, float, i16, i32, i32, i16, [20 x i8], i32, i16, i32, i8, i8, i16, i16, i16, i16, i16, i16, i16, i16, i16, i32, i16, [16 x i8], float }
%struct.libraw_kodak_makernotes_t = type { i16, i16, i16, i16, i16, i16, [3 x [3 x float]], [3 x [3 x float]], [3 x [3 x float]], [3 x [3 x float]], [3 x [3 x float]], [3 x [3 x float]], i16, i16, i16, i16, float, float }
%struct.libraw_panasonic_makernotes_t = type { i16, i16, [8 x float], i32, float, [3 x i32], i16, i16, i32, i32 }
%struct.libraw_pentax_makernotes_t = type { [4 x i8], [2 x i16], [2 x i16], i16, i32, i32, i16, i16, i8, i8, i16 }
%struct.libraw_p1_makernotes_t = type { [64 x i8], [64 x i8], [256 x i8], [64 x i8] }
%struct.libraw_ricoh_makernotes_t = type { i16, [2 x i32], [2 x i32], i16, i32, i32, i32, i32, i16, i16, i16, i16, i16, i16, double, double }
%struct.libraw_samsung_makernotes_t = type { [4 x i32], [4 x i32], [2 x i32], [11 x i32], double, i32, [32 x i8] }
%struct.libraw_metadata_common_t = type { float, float, float, float, float, float, float, float, float, float, float, float, float, float, float, float, i16, [128 x i8], float, [4 x %struct.libraw_afinfo_item_t], i32 }
%struct.libraw_afinfo_item_t = type { i32, i16, i32, i32, ptr }
%struct.libraw_shootinginfo_t = type { i16, i16, i16, i16, i16, i16, i16, [64 x i8], [64 x i8] }
%struct.libraw_output_params_t = type { [4 x i32], [4 x i32], [4 x double], [6 x double], [4 x float], float, float, i32, i32, i32, i32, i32, i32, i32, ptr, ptr, ptr, ptr, i32, i32, i32, i32, i32, i32, [4 x i32], i32, i32, float, float, i32, i32, i32, i32, i32, i32, i32, i32, float, float, i32, i32 }
%struct.libraw_raw_unpack_params_t = type { i32, i32, i32, i32, i32, i32, i32, float, [5 x i8], ptr }
%struct.libraw_colordata_t = type { [65536 x i16], [4104 x i32], i32, i32, i32, [4 x i64], float, float, [8 x [8 x i16]], [4 x float], [4 x float], [3 x [4 x float]], [3 x [4 x float]], [3 x [4 x float]], [4 x [3 x float]], %struct.ph1_t, float, float, [64 x i8], [64 x i8], [64 x i8], [64 x i8], [17 x i8], [64 x i8], ptr, i32, [8 x i32], [2 x %struct.libraw_dng_color_t], %struct.libraw_dng_levels_t, [256 x [4 x i32]], [64 x [5 x float]], i32, [2 x %struct.libraw_P1_color_t], i32, i32 }
%struct.ph1_t = type { i32, i32, i32, i32, i32, i32, i32, i32, float }
%struct.libraw_dng_color_t = type { i32, i16, [4 x [4 x float]], [4 x [3 x float]], [3 x [4 x float]] }
%struct.libraw_dng_levels_t = type { i32, [4104 x i32], i32, [4104 x float], float, [4 x i32], [4 x i16], [4 x float], i32, [4 x float], [4 x float], float, float }
%struct.libraw_P1_color_t = type { [9 x float] }
%struct.libraw_imgother_t = type { float, float, float, float, i64, i32, [32 x i32], %struct.libraw_gps_info_t, [512 x i8], [64 x i8], [4 x float] }
%struct.libraw_gps_info_t = type { [3 x float], [3 x float], [3 x float], float, i8, i8, i8, i8, i8 }
%struct.libraw_thumbnail_t = type { i32, i16, i16, i32, i32, ptr }
%struct.libraw_thumbnail_list_t = type { i32, [8 x %struct.libraw_thumbnail_item_t] }
%struct.libraw_thumbnail_item_t = type { i32, i16, i16, i16, i32, i32, i64 }
%struct.libraw_rawdata_t = type { ptr, ptr, ptr, ptr, ptr, ptr, ptr, ptr, ptr, %struct.libraw_iparams_t, %struct.libraw_image_sizes_t, %struct.libraw_internal_output_params_t, %struct.libraw_colordata_t }
%struct.libraw_internal_output_params_t = type { i32, i32, i32, i16, i16 }
%struct.libraw_internal_data_t = type { %struct.internal_data_t, %struct.libraw_internal_output_params_t, %struct.output_data_t, %struct.identify_data_t, %struct.unpacker_data_t }
%struct.internal_data_t = type { ptr, ptr, i32, ptr, i64, i64, [4 x i32] }
%struct.output_data_t = type { ptr, ptr }
%struct.identify_data_t = type { i32, i64, i64, i32, i32, i32 }
%struct.unpacker_data_t = type { i16, [4 x i16], [3 x i16], i32, i64, i64, i64, i64, i64, i64, i32, i32, i32, i32, i32, i32, i32, i32, i32, i32, i32, i32, i32, i32, i32, i32, i32, i64, i32, i32, i32, i32, i32, i32, i32, i32, i32, %struct.pana8_tags_t, [16 x %struct.crx_data_header_t], i32, i32, i16, i16, i32, i32, i32, i32, i32, i32, i32, [20 x i32], i16 }
%struct.pana8_tags_t = type { [6 x i32], [6 x i16], i16, [4 x i16], [17 x i16], [17 x i16], [17 x i16], i16, i16, [5 x i64], [5 x i16], [5 x i32], [5 x i16], [5 x i16] }
%struct.crx_data_header_t = type { i32, i32, i32, i32, i32, i32, i32, i32, i32, i32, i32, i32, i32, i32, i32, i64, i32, ptr, i32, i32, i32, ptr, i32, ptr }
%struct.decode = type { [2 x ptr], i32 }
%struct.tiff_ifd_t = type { i32, i32, i32, i32, i32, i32, i32, i32, i32, i32, i32, i32, i32, i32, i32, ptr, i32, ptr, i32, i32, i32, i32, i32, i32, i32, float, i64, i64, i32, [2 x %struct.libraw_dng_color_t], %struct.libraw_dng_levels_t, i32 }
%class.libraw_memmgr = type <{ ptr, i32, [4 x i8] }>
%struct.libraw_callbacks_t = type { ptr, ptr, ptr, ptr, ptr, ptr, ptr, ptr, ptr, ptr, ptr, ptr, ptr, ptr, ptr, ptr, ptr }

; Function Attrs: mustprogress uwtable
define void @_ZN3DHT14make_diag_dirsEv(ptr noundef nonnull align 8 dereferenceable(56) %0) #0 align 2 {
  %2 = alloca ptr, align 8
  %3 = alloca i32, align 4
  %4 = alloca i32, align 4
  store ptr %0, ptr %2, align 8, !tbaa !6
  %5 = load ptr, ptr %2, align 8
  call void @llvm.lifetime.start.p0(i64 4, ptr %3) #11
  store i32 0, ptr %3, align 4, !tbaa !81
  br label %6

6:                                                ; preds = %19, %1
  %7 = load i32, ptr %3, align 4, !tbaa !81
  %8 = getelementptr inbounds nuw %struct.DHT, ptr %5, i32 0, i32 5
  %9 = load ptr, ptr %8, align 8, !tbaa !13
  %10 = getelementptr inbounds nuw %class.LibRaw, ptr %9, i32 0, i32 1
  %11 = getelementptr inbounds nuw %struct.libraw_data_t, ptr %10, i32 0, i32 1
  %12 = getelementptr inbounds nuw %struct.libraw_image_sizes_t, ptr %11, i32 0, i32 6
  %13 = load i16, ptr %12, align 4, !tbaa !18
  %14 = zext i16 %13 to i32
  %15 = icmp slt i32 %7, %14
  br i1 %15, label %17, label %16

16:                                               ; preds = %6
  call void @llvm.lifetime.end.p0(i64 4, ptr %3) #11
  br label %22

17:                                               ; preds = %6
  %18 = load i32, ptr %3, align 4, !tbaa !81
  call void @_ZN3DHT15make_diag_dlineEi(ptr noundef nonnull align 8 dereferenceable(56) %5, i32 noundef %18)
  br label %19

19:                                               ; preds = %17
  %20 = load i32, ptr %3, align 4, !tbaa !81
  %21 = add nsw i32 %20, 1
  store i32 %21, ptr %3, align 4, !tbaa !81
  br label %6, !llvm.loop !103

22:                                               ; preds = %16
  call void @llvm.lifetime.start.p0(i64 4, ptr %4) #11
  store i32 0, ptr %4, align 4, !tbaa !81
  br label %23

23:                                               ; preds = %36, %22
  %24 = load i32, ptr %4, align 4, !tbaa !81
  %25 = getelementptr inbounds nuw %struct.DHT, ptr %5, i32 0, i32 5
  %26 = load ptr, ptr %25, align 8, !tbaa !13
  %27 = getelementptr inbounds nuw %class.LibRaw, ptr %26, i32 0, i32 1
  %28 = getelementptr inbounds nuw %struct.libraw_data_t, ptr %27, i32 0, i32 1
  %29 = getelementptr inbounds nuw %struct.libraw_image_sizes_t, ptr %28, i32 0, i32 6
  %30 = load i16, ptr %29, align 4, !tbaa !18
  %31 = zext i16 %30 to i32
  %32 = icmp slt i32 %24, %31
  br i1 %32, label %34, label %33

33:                                               ; preds = %23
  call void @llvm.lifetime.end.p0(i64 4, ptr %4) #11
  br label %39

34:                                               ; preds = %23
  %35 = load i32, ptr %4, align 4, !tbaa !81
  call void @_ZN3DHT17refine_idiag_dirsEi(ptr noundef nonnull align 8 dereferenceable(56) %5, i32 noundef %35)
  br label %36

36:                                               ; preds = %34
  %37 = load i32, ptr %4, align 4, !tbaa !81
  %38 = add nsw i32 %37, 1
  store i32 %38, ptr %4, align 4, !tbaa !81
  br label %23, !llvm.loop !104

39:                                               ; preds = %33
  ret void
}